target datalayout = "e-m:e-p270:32:32-p271:32:32-p272:64:64-i64:64-i128:128-f80:128-n8:16:32:64-S128"
target triple = "x86_64-pc-linux-gnu"

%struct.Vec_Wrd_t_ = type { i32, i32, ptr }
%struct.Mpm_Man_t_ = type { ptr, ptr, i32, i32, i32, ptr, i32, i32, i64, i64, ptr, i32, [33 x ptr], [33 x %struct.Mpm_Uni_t_], %struct.Vec_Ptr_t_, ptr, ptr, [3 x i32], [3 x [33 x ptr]], [3 x [33 x i64]], ptr, i32, i32, [64 x i64], [64 x i64], [64 x i64], [64 x i64], ptr, ptr, ptr, ptr, [720 x [6 x i8]], ptr, [3 x i32], [3 x i32], ptr, %struct.Vec_Int_t_, %struct.Vec_Int_t_, %struct.Vec_Int_t_, %struct.Vec_Int_t_, %struct.Vec_Int_t_, %struct.Vec_Int_t_, %struct.Vec_Int_t_, %struct.Vec_Int_t_, %struct.Vec_Int_t_, [600 x i32], i32, i32, i32, i32, i32, i64, i64, i64, i64, i64, i64, i64 }
%struct.Mpm_Uni_t_ = type { i32, i32, i32, i32, i64, i32, %struct.Mpm_Cut_t_, [11 x i32] }
%struct.Mpm_Cut_t_ = type { i32, i32, [1 x i32] }
%struct.Vec_Ptr_t_ = type { i32, i32, ptr }
%struct.Vec_Int_t_ = type { i32, i32, ptr }
%struct.Hsh_IntMan_t_ = type { i32, ptr, ptr, ptr }
%struct.Hsh_IntObj_t_ = type { i32, i32 }

; Function Attrs: inlinehint nounwind uwtable
define internal ptr @Vec_WrdEntryP(ptr noundef %0, i32 noundef %1) #2 {
  %3 = alloca ptr, align 8
  %4 = alloca i32, align 4
  store ptr %0, ptr %3, align 8, !tbaa !7
  store i32 %1, ptr %4, align 4, !tbaa !3
  %5 = load ptr, ptr %3, align 8, !tbaa !7
  %6 = getelementptr inbounds nuw %struct.Vec_Wrd_t_, ptr %5, i32 0, i32 2
  %7 = load ptr, ptr %6, align 8, !tbaa !21
  %8 = load i32, ptr %4, align 4, !tbaa !3
  %9 = sext i32 %8 to i64
  %10 = getelementptr inbounds i64, ptr %7, i64 %9
  ret ptr %10
}

; Function Attrs: inlinehint nounwind uwtable
define internal ptr @Hsh_IntData(ptr noundef %0, i32 noundef %1) #2 {
  %3 = alloca ptr, align 8
  %4 = alloca i32, align 4
  store ptr %0, ptr %3, align 8, !tbaa !55
  store i32 %1, ptr %4, align 4, !tbaa !3
  %5 = load ptr, ptr %3, align 8, !tbaa !55
  %6 = getelementptr inbounds nuw %struct.Hsh_IntMan_t_, ptr %5, i32 0, i32 1
  %7 = load ptr, ptr %6, align 8, !tbaa !100
  %8 = load ptr, ptr %3, align 8, !tbaa !55
  %9 = getelementptr inbounds nuw %struct.Hsh_IntMan_t_, ptr %8, i32 0, i32 0
  %10 = load i32, ptr %9, align 8, !tbaa !81
  %11 = load i32, ptr %4, align 4, !tbaa !3
  %12 = mul nsw i32 %10, %11
  %13 = call ptr @Vec_IntEntryP(ptr noundef %7, i32 noundef %12)
  ret ptr %13
}

; Function Attrs: inlinehint nounwind uwtable
define internal ptr @Hsh_IntObj(ptr noundef %0, i32 noundef %1) #2 {
  %3 = alloca ptr, align 8
  %4 = alloca i32, align 4
  store ptr %0, ptr %3, align 8, !tbaa !55
  store i32 %1, ptr %4, align 4, !tbaa !3
  %5 = load i32, ptr %4, align 4, !tbaa !3
  %6 = icmp eq i32 %5, -1
  br i1 %6, label %7, label %8

7:                                                ; preds = %2
  br label %14

8:                                                ; preds = %2
  %9 = load ptr, ptr %3, align 8, !tbaa !55
  %10 = getelementptr inbounds nuw %struct.Hsh_IntMan_t_, ptr %9, i32 0, i32 3
  %11 = load ptr, ptr %10, align 8, !tbaa !101
  %12 = load i32, ptr %4, align 4, !tbaa !3
  %13 = call ptr @Vec_WrdEntryP(ptr noundef %11, i32 noundef %12)
  br label %14

14:                                               ; preds = %8, %7
  %15 = phi ptr [ null, %7 ], [ %13, %8 ]
  ret ptr %15
}

; Function Attrs: inlinehint nounwind uwtable
define internal ptr @Vec_IntEntryP(ptr noundef %0, i32 noundef %1) #2 {
  %3 = alloca ptr, align 8
  %4 = alloca i32, align 4
  store ptr %0, ptr %3, align 8, !tbaa !51
  store i32 %1, ptr %4, align 4, !tbaa !3
  %5 = load ptr, ptr %3, align 8, !tbaa !51
  %6 = getelementptr inbounds nuw %struct.Vec_Int_t_, ptr %5, i32 0, i32 2
  %7 = load ptr, ptr %6, align 8, !tbaa !57
  %8 = load i32, ptr %4, align 4, !tbaa !3
  %9 = sext i32 %8 to i64
  %10 = getelementptr inbounds i32, ptr %7, i64 %9
  ret ptr %10
}

; Function Attrs: inlinehint nounwind uwtable
define internal i32 @Hsh_IntManHash(ptr noundef %0, i32 noundef %1, i32 noundef %2) #2 {
  %4 = alloca ptr, align 8
  %5 = alloca i32, align 4
  %6 = alloca i32, align 4
  %7 = alloca i32, align 4
  %8 = alloca i32, align 4
  %9 = alloca ptr, align 8
  store ptr %0, ptr %4, align 8, !tbaa !60
  store i32 %1, ptr %5, align 4, !tbaa !3
  store i32 %2, ptr %6, align 4, !tbaa !3
  call void @llvm.lifetime.start.p0(i64 4, ptr %7) #12
  store i32 0, ptr %7, align 4, !tbaa !3
  call void @llvm.lifetime.start.p0(i64 4, ptr %8) #12
  store i32 0, ptr %8, align 4, !tbaa !3
  call void @llvm.lifetime.start.p0(i64 8, ptr %9) #12
  %10 = load ptr, ptr %4, align 8, !tbaa !60
  store ptr %10, ptr %9, align 8, !tbaa !50
  %11 = load i32, ptr %5, align 4, !tbaa !3
  %12 = shl i32 %11, 2
  store i32 %12, ptr %5, align 4, !tbaa !3
  br label %13

13:                                               ; preds = %17, %3
  %14 = load i32, ptr %7, align 4, !tbaa !3
  %15 = load i32, ptr %5, align 4, !tbaa !3
  %16 = icmp ne i32 %14, %15
  br i1 %16, label %17, label %35

17:                                               ; preds = %13
  %18 = load ptr, ptr %9, align 8, !tbaa !50
  %19 = load i32, ptr %7, align 4, !tbaa !3
  %20 = add nsw i32 %19, 1
  store i32 %20, ptr %7, align 4, !tbaa !3
  %21 = sext i32 %19 to i64
  %22 = getelementptr inbounds i8, ptr %18, i64 %21
  %23 = load i8, ptr %22, align 1, !tbaa !62
  %24 = zext i8 %23 to i32
  %25 = load i32, ptr %8, align 4, !tbaa !3
  %26 = add i32 %25, %24
  store i32 %26, ptr %8, align 4, !tbaa !3
  %27 = load i32, ptr %8, align 4, !tbaa !3
  %28 = shl i32 %27, 10
  %29 = load i32, ptr %8, align 4, !tbaa !3
  %30 = add i32 %29, %28
  store i32 %30, ptr %8, align 4, !tbaa !3
  %31 = load i32, ptr %8, align 4, !tbaa !3
  %32 = lshr i32 %31, 6
  %33 = load i32, ptr %8, align 4, !tbaa !3
  %34 = xor i32 %33, %32
  store i32 %34, ptr %8, align 4, !tbaa !3
  br label %13, !llvm.loop !106

35:                                               ; preds = %13
  %36 = load i32, ptr %8, align 4, !tbaa !3
  %37 = shl i32 %36, 3
  %38 = load i32, ptr %8, align 4, !tbaa !3
  %39 = add i32 %38, %37
  store i32 %39, ptr %8, align 4, !tbaa !3
  %40 = load i32, ptr %8, align 4, !tbaa !3
  %41 = lshr i32 %40, 11
  %42 = load i32, ptr %8, align 4, !tbaa !3
  %43 = xor i32 %42, %41
  store i32 %43, ptr %8, align 4, !tbaa !3
  %44 = load i32, ptr %8, align 4, !tbaa !3
  %45 = shl i32 %44, 15
  %46 = load i32, ptr %8, align 4, !tbaa !3
  %47 = add i32 %46, %45
  store i32 %47, ptr %8, align 4, !tbaa !3
  %48 = load i32, ptr %8, align 4, !tbaa !3
  %49 = load i32, ptr %6, align 4, !tbaa !3
  %50 = urem i32 %48, %49
  call void @llvm.lifetime.end.p0(i64 8, ptr %9) #12
  call void @llvm.lifetime.end.p0(i64 4, ptr %8) #12
  call void @llvm.lifetime.end.p0(i64 4, ptr %7) #12
  ret i32 %50
}

; Function Attrs: inlinehint nounwind uwtable
define internal i32 @Vec_IntSize(ptr noundef %0) #2 {
  %2 = alloca ptr, align 8
  store ptr %0, ptr %2, align 8, !tbaa !51
  %3 = load ptr, ptr %2, align 8, !tbaa !51
  %4 = getelementptr inbounds nuw %struct.Vec_Int_t_, ptr %3, i32 0, i32 1
  %5 = load i32, ptr %4, align 4, !tbaa !54
  ret i32 %5
}

; Function Attrs: inlinehint nounwind uwtable
define internal i32 @Vec_IntEntry(ptr noundef %0, i32 noundef %1) #2 {
  %3 = alloca ptr, align 8
  %4 = alloca i32, align 4
  store ptr %0, ptr %3, align 8, !tbaa !51
  store i32 %1, ptr %4, align 4, !tbaa !3
  %5 = load ptr, ptr %3, align 8, !tbaa !51
  %6 = getelementptr inbounds nuw %struct.Vec_Int_t_, ptr %5, i32 0, i32 2
  %7 = load ptr, ptr %6, align 8, !tbaa !57
  %8 = load i32, ptr %4, align 4, !tbaa !3
  %9 = sext i32 %8 to i64
  %10 = getelementptr inbounds i32, ptr %7, i64 %9
  %11 = load i32, ptr %10, align 4, !tbaa !3
  ret i32 %11
}

; Function Attrs: inlinehint nounwind uwtable
define internal ptr @Hsh_IntManLookup(ptr noundef %0, ptr noundef %1) #2 {
  %3 = alloca ptr, align 8
  %4 = alloca ptr, align 8
  %5 = alloca ptr, align 8
  %6 = alloca ptr, align 8
  %7 = alloca ptr, align 8
  %8 = alloca i32, align 4
  store ptr %0, ptr %4, align 8, !tbaa !55
  store ptr %1, ptr %5, align 8, !tbaa !60
  call void @llvm.lifetime.start.p0(i64 8, ptr %6) #12
  call void @llvm.lifetime.start.p0(i64 8, ptr %7) #12
  %9 = load ptr, ptr %4, align 8, !tbaa !55
  %10 = getelementptr inbounds nuw %struct.Hsh_IntMan_t_, ptr %9, i32 0, i32 2
  %11 = load ptr, ptr %10, align 8, !tbaa !79
  %12 = load ptr, ptr %5, align 8, !tbaa !60
  %13 = load ptr, ptr %4, align 8, !tbaa !55
  %14 = getelementptr inbounds nuw %struct.Hsh_IntMan_t_, ptr %13, i32 0, i32 0
  %15 = load i32, ptr %14, align 8, !tbaa !81
  %16 = load ptr, ptr %4, align 8, !tbaa !55
  %17 = getelementptr inbounds nuw %struct.Hsh_IntMan_t_, ptr %16, i32 0, i32 2
  %18 = load ptr, ptr %17, align 8, !tbaa !79
  %19 = call i32 @Vec_IntSize(ptr noundef %18)
  %20 = call i32 @Hsh_IntManHash(ptr noundef %12, i32 noundef %15, i32 noundef %19)
  %21 = call ptr @Vec_IntEntryP(ptr noundef %11, i32 noundef %20)
  store ptr %21, ptr %7, align 8, !tbaa !60
  br label %22

22:                                               ; preds = %45, %2
  %23 = load ptr, ptr %4, align 8, !tbaa !55
  %24 = load ptr, ptr %7, align 8, !tbaa !60
  %25 = load i32, ptr %24, align 4, !tbaa !3
  %26 = call ptr @Hsh_IntObj(ptr noundef %23, i32 noundef %25)
  store ptr %26, ptr %6, align 8, !tbaa !82
  %27 = icmp ne ptr %26, null
  br i1 %27, label %28, label %48

28:                                               ; preds = %22
  %29 = load ptr, ptr %5, align 8, !tbaa !60
  %30 = load ptr, ptr %4, align 8, !tbaa !55
  %31 = load ptr, ptr %6, align 8, !tbaa !82
  %32 = getelementptr inbounds nuw %struct.Hsh_IntObj_t_, ptr %31, i32 0, i32 0
  %33 = load i32, ptr %32, align 4, !tbaa !84
  %34 = call ptr @Hsh_IntData(ptr noundef %30, i32 noundef %33)
  %35 = load ptr, ptr %4, align 8, !tbaa !55
  %36 = getelementptr inbounds nuw %struct.Hsh_IntMan_t_, ptr %35, i32 0, i32 0
  %37 = load i32, ptr %36, align 8, !tbaa !81
  %38 = sext i32 %37 to i64
  %39 = mul i64 4, %38
  %40 = call i32 @memcmp(ptr noundef %29, ptr noundef %34, i64 noundef %39) #14
  %41 = icmp ne i32 %40, 0
  br i1 %41, label %44, label %42

42:                                               ; preds = %28
  %43 = load ptr, ptr %7, align 8, !tbaa !60
  store ptr %43, ptr %3, align 8
  store i32 1, ptr %8, align 4
  br label %50

44:                                               ; preds = %28
  br label %45

45:                                               ; preds = %44
  %46 = load ptr, ptr %6, align 8, !tbaa !82
  %47 = getelementptr inbounds nuw %struct.Hsh_IntObj_t_, ptr %46, i32 0, i32 1
  store ptr %47, ptr %7, align 8, !tbaa !60
  br label %22, !llvm.loop !86

48:                                               ; preds = %22
  %49 = load ptr, ptr %7, align 8, !tbaa !60
  store ptr %49, ptr %3, align 8
  store i32 1, ptr %8, align 4
  br label %50

50:                                               ; preds = %48, %42
  call void @llvm.lifetime.end.p0(i64 8, ptr %7) #12
  call void @llvm.lifetime.end.p0(i64 8, ptr %6) #12
  %51 = load ptr, ptr %3, align 8
  ret ptr %51
}

; Function Attrs: nounwind uwtable
define i32 @Mpm_CutCheckDsd6(ptr noundef %0, i64 noundef %1) #0 {
  %3 = alloca i32, align 4
  %4 = alloca ptr, align 8
  %5 = alloca i64, align 8
  %6 = alloca i32, align 4
  %7 = alloca i32, align 4
  %8 = alloca i32, align 4
  %9 = alloca i32, align 4
  store ptr %0, ptr %4, align 8, !tbaa !23
  store i64 %1, ptr %5, align 8, !tbaa !22
  call void @llvm.lifetime.start.p0(i64 4, ptr %6) #12
  call void @llvm.lifetime.start.p0(i64 4, ptr %7) #12
  call void @llvm.lifetime.start.p0(i64 4, ptr %8) #12
  %10 = load i64, ptr %5, align 8, !tbaa !22
  %11 = and i64 %10, 1
  %12 = trunc i64 %11 to i32
  store i32 %12, ptr %6, align 4, !tbaa !3
  %13 = icmp ne i32 %12, 0
  br i1 %13, label %14, label %17

14:                                               ; preds = %2
  %15 = load i64, ptr %5, align 8, !tbaa !22
  %16 = xor i64 %15, -1
  store i64 %16, ptr %5, align 8, !tbaa !22
  br label %17

17:                                               ; preds = %14, %2
  %18 = load ptr, ptr %4, align 8, !tbaa !23
  %19 = getelementptr inbounds nuw %struct.Mpm_Man_t_, ptr %18, i32 0, i32 28
  %20 = load ptr, ptr %19, align 8, !tbaa !73
  %21 = call ptr @Hsh_IntManLookup(ptr noundef %20, ptr noundef %5)
  %22 = load i32, ptr %21, align 4, !tbaa !3
  store i32 %22, ptr %7, align 4, !tbaa !3
  %23 = load i32, ptr %7, align 4, !tbaa !3
  %24 = icmp eq i32 %23, -1
  br i1 %24, label %25, label %26

25:                                               ; preds = %17
  store i32 -1, ptr %3, align 4
  store i32 1, ptr %9, align 4
  br label %39

26:                                               ; preds = %17
  %27 = load ptr, ptr %4, align 8, !tbaa !23
  %28 = getelementptr inbounds nuw %struct.Mpm_Man_t_, ptr %27, i32 0, i32 29
  %29 = load ptr, ptr %28, align 8, !tbaa !78
  %30 = load i32, ptr %7, align 4, !tbaa !3
  %31 = call i32 @Vec_IntEntry(ptr noundef %29, i32 noundef %30)
  store i32 %31, ptr %8, align 4, !tbaa !3
  %32 = load i32, ptr %6, align 4, !tbaa !3
  %33 = icmp ne i32 %32, 0
  br i1 %33, label %34, label %37

34:                                               ; preds = %26
  %35 = load i32, ptr %8, align 4, !tbaa !3
  %36 = xor i32 %35, 65536
  store i32 %36, ptr %8, align 4, !tbaa !3
  br label %37

37:                                               ; preds = %34, %26
  %38 = load i32, ptr %8, align 4, !tbaa !3
  store i32 %38, ptr %3, align 4
  store i32 1, ptr %9, align 4
  br label %39

39:                                               ; preds = %37, %25
  call void @llvm.lifetime.end.p0(i64 4, ptr %8) #12
  call void @llvm.lifetime.end.p0(i64 4, ptr %7) #12
  call void @llvm.lifetime.end.p0(i64 4, ptr %6) #12
  %40 = load i32, ptr %3, align 4
  ret i32 %40
}