; Function Attrs: nofree nounwind memory(read, inaccessiblemem: none) uwtable
define i32 @Mpm_CutCheckDsd6(ptr noundef readonly captures(none) %0, i64 noundef %1) local_unnamed_addr #8 {
  %3 = alloca i64, align 8
  %4 = and i64 %1, 1
  %.not = icmp ne i64 %4, 0
  %5 = sext i1 %.not to i64
  %spec.select = xor i64 %1, %5
  store i64 %spec.select, ptr %3, align 8, !tbaa !17
  %6 = getelementptr inbounds nuw i8, ptr %0, i64 6952
  %7 = load ptr, ptr %6, align 8, !tbaa !79
  %8 = getelementptr inbounds nuw i8, ptr %7, i64 16
  %9 = load ptr, ptr %8, align 8, !tbaa !53
  %10 = load i32, ptr %7, align 8, !tbaa !48
  %11 = getelementptr i8, ptr %9, i64 4
  %.val.i = load i32, ptr %11, align 4, !tbaa !45
  %12 = shl i32 %10, 2
  %.not19.i.i = icmp eq i32 %12, 0
  br i1 %.not19.i.i, label %Hsh_IntManHash.exit.i, label %.lr.ph.preheader.i.i

.lr.ph.preheader.i.i:                             ; preds = %2
  %13 = zext i32 %12 to i64
  br label %.lr.ph.i.i

.lr.ph.i.i:                                       ; preds = %.lr.ph.i.i, %.lr.ph.preheader.i.i
  %indvars.iv.i.i = phi i64 [ 0, %.lr.ph.preheader.i.i ], [ %indvars.iv.next.i.i, %.lr.ph.i.i ]
  %.021.i.i = phi i32 [ 0, %.lr.ph.preheader.i.i ], [ %20, %.lr.ph.i.i ]
  %indvars.iv.next.i.i = add nuw nsw i64 %indvars.iv.i.i, 1
  %14 = getelementptr inbounds nuw i8, ptr %3, i64 %indvars.iv.i.i
  %15 = load i8, ptr %14, align 1, !tbaa !57
  %16 = zext i8 %15 to i32
  %17 = add i32 %.021.i.i, %16
  %18 = mul i32 %17, 1025
  %19 = lshr i32 %18, 6
  %20 = xor i32 %19, %18
  %.not.i.i = icmp eq i64 %indvars.iv.next.i.i, %13
  br i1 %.not.i.i, label %._crit_edge.loopexit.i.i, label %.lr.ph.i.i, !llvm.loop !58

._crit_edge.loopexit.i.i:                         ; preds = %.lr.ph.i.i
  %21 = mul i32 %20, 9
  br label %Hsh_IntManHash.exit.i

Hsh_IntManHash.exit.i:                            ; preds = %._crit_edge.loopexit.i.i, %2
  %.0.lcssa.i.i = phi i32 [ 0, %2 ], [ %21, %._crit_edge.loopexit.i.i ]
  %22 = lshr i32 %.0.lcssa.i.i, 11
  %23 = xor i32 %22, %.0.lcssa.i.i
  %24 = mul i32 %23, 32769
  %25 = urem i32 %24, %.val.i
  %26 = getelementptr i8, ptr %9, i64 8
  %.val17.i = load ptr, ptr %26, align 8, !tbaa !47
  %27 = sext i32 %25 to i64
  %28 = getelementptr inbounds i32, ptr %.val17.i, i64 %27
  %29 = load i32, ptr %28, align 4, !tbaa !20
  %30 = icmp eq i32 %29, -1
  br i1 %30, label %Hsh_IntManLookup.exit.thread, label %Hsh_IntObj.exit.lr.ph.i

Hsh_IntObj.exit.lr.ph.i:                          ; preds = %Hsh_IntManHash.exit.i
  %31 = getelementptr inbounds nuw i8, ptr %7, i64 24
  %32 = load ptr, ptr %31, align 8, !tbaa !54
  %33 = getelementptr i8, ptr %32, i64 8
  %.val.i.i = load ptr, ptr %33, align 8, !tbaa !11
  %.not.i = icmp eq ptr %.val.i.i, null
  %34 = sext i32 %10 to i64
  %35 = shl nsw i64 %34, 2
  br i1 %.not.i, label %Hsh_IntManLookup.exit, label %Hsh_IntObj.exit.lr.ph.split.i

Hsh_IntObj.exit.lr.ph.split.i:                    ; preds = %Hsh_IntObj.exit.lr.ph.i
  %36 = getelementptr i8, ptr %7, i64 8
  %.val19.i = load ptr, ptr %36, align 8, !tbaa !50
  %37 = getelementptr i8, ptr %.val19.i, i64 8
  %.val19.val.i = load ptr, ptr %37, align 8, !tbaa !47
  %38 = sext i32 %29 to i64
  %39 = getelementptr inbounds i64, ptr %.val.i.i, i64 %38
  %40 = load i32, ptr %39, align 4, !tbaa !55
  %41 = mul nsw i32 %40, %10
  %42 = sext i32 %41 to i64
  %43 = getelementptr inbounds i32, ptr %.val19.val.i, i64 %42
  %bcmp25.i = call i32 @bcmp(ptr nonnull readonly %3, ptr %43, i64 %35)
  %.not1626.i = icmp eq i32 %bcmp25.i, 0
  br i1 %.not1626.i, label %Hsh_IntManLookup.exit, label %.lr.ph.i.preheader

.lr.ph.i.preheader:                               ; preds = %Hsh_IntObj.exit.lr.ph.split.i
  %invariant.gep = getelementptr i8, ptr %.val.i.i, i64 4
  br label %.lr.ph.i

.lr.ph.i:                                         ; preds = %.lr.ph.i.preheader, %Hsh_IntObj.exit.i
  %44 = phi i64 [ %47, %Hsh_IntObj.exit.i ], [ %38, %.lr.ph.i.preheader ]
  %gep = getelementptr i64, ptr %invariant.gep, i64 %44
  %45 = load i32, ptr %gep, align 4, !tbaa !20
  %46 = icmp eq i32 %45, -1
  br i1 %46, label %Hsh_IntManLookup.exit.thread, label %Hsh_IntObj.exit.i, !llvm.loop !61

Hsh_IntObj.exit.i:                                ; preds = %.lr.ph.i
  %47 = sext i32 %45 to i64
  %48 = getelementptr inbounds i64, ptr %.val.i.i, i64 %47
  %49 = load i32, ptr %48, align 4, !tbaa !55
  %50 = mul nsw i32 %49, %10
  %51 = sext i32 %50 to i64
  %52 = getelementptr inbounds i32, ptr %.val19.val.i, i64 %51
  %bcmp.i = call i32 @bcmp(ptr nonnull readonly %3, ptr %52, i64 %35)
  %.not16.i = icmp eq i32 %bcmp.i, 0
  br i1 %.not16.i, label %Hsh_IntManLookup.exit, label %.lr.ph.i, !llvm.loop !61

Hsh_IntManLookup.exit:                            ; preds = %Hsh_IntObj.exit.i, %Hsh_IntObj.exit.lr.ph.split.i, %Hsh_IntObj.exit.lr.ph.i
  %.pr = phi i32 [ %29, %Hsh_IntObj.exit.lr.ph.i ], [ %29, %Hsh_IntObj.exit.lr.ph.split.i ], [ %45, %Hsh_IntObj.exit.i ]
  %53 = getelementptr inbounds nuw i8, ptr %0, i64 6960
  %54 = load ptr, ptr %53, align 8, !tbaa !81
  %55 = getelementptr i8, ptr %54, i64 8
  %.val = load ptr, ptr %55, align 8, !tbaa !47
  %56 = sext i32 %.pr to i64
  %57 = getelementptr inbounds i32, ptr %.val, i64 %56
  %58 = load i32, ptr %57, align 4, !tbaa !20
  %59 = xor i32 %58, 65536
  %spec.select9 = select i1 %.not, i32 %59, i32 %58
  br label %Hsh_IntManLookup.exit.thread

Hsh_IntManLookup.exit.thread:                     ; preds = %.lr.ph.i, %Hsh_IntManHash.exit.i, %Hsh_IntManLookup.exit
  %.07 = phi i32 [ %spec.select9, %Hsh_IntManLookup.exit ], [ -1, %Hsh_IntManHash.exit.i ], [ -1, %.lr.ph.i ]
  ret i32 %.07
}